target datalayout = "e-m:e-p270:32:32-p271:32:32-p272:64:64-i64:64-i128:128-f80:128-n8:16:32:64-S128"
target triple = "x86_64-pc-linux-gnu"

%struct.slurm_conf_t = type { i64, ptr, i16, ptr, ptr, ptr, ptr, ptr, i16, ptr, ptr, ptr, ptr, ptr, ptr, ptr, i16, ptr, ptr, ptr, ptr, i16, ptr, ptr, ptr, i64, ptr, ptr, ptr, ptr, i16, ptr, ptr, i16, i32, ptr, i32, ptr, i32, i32, ptr, ptr, i64, i64, ptr, i16, i16, ptr, i32, i32, ptr, i32, ptr, i32, i16, i16, i16, ptr, i16, i16, ptr, ptr, i32, i16, i16, ptr, i32, i16, ptr, ptr, ptr, ptr, i16, ptr, ptr, ptr, ptr, i32, ptr, ptr, ptr, ptr, i16, i16, ptr, i32, i32, i32, i16, i16, ptr, ptr, i16, ptr, ptr, i32, i32, i32, i32, i32, i64, i32, i32, i16, ptr, ptr, i32, ptr, ptr, ptr, i16, i32, ptr, ptr, i16, ptr, ptr, i32, i16, ptr, ptr, ptr, ptr, i32, i32, i16, i16, i32, ptr, i16, ptr, i32, i32, i32, i32, i32, i32, ptr, i16, ptr, ptr, i32, i16, ptr, i32, i16, i16, ptr, ptr, ptr, i16, ptr, ptr, ptr, ptr, i16, i16, ptr, i16, ptr, i16, ptr, i16, ptr, i16, ptr, ptr, ptr, ptr, i16, ptr, ptr, ptr, i32, ptr, i32, ptr, ptr, i16, ptr, ptr, i32, i16, ptr, ptr, i16, i16, ptr, i16, ptr, ptr, ptr, i32, ptr, i16, i16, ptr, ptr, ptr, ptr, ptr, ptr, ptr, ptr, i16, i32, i16, ptr, ptr, ptr, ptr, i32, ptr, ptr, ptr, i16, ptr, ptr, ptr, i16, ptr, i16, ptr, i16, i16, ptr }
%struct.node_record = type { ptr, ptr, i16, i64, i64, ptr, ptr, ptr, i16, ptr, i16, i16, i32, i32, i64, ptr, i16, i16, ptr, ptr, ptr, ptr, ptr, i64, i64, ptr, ptr, ptr, ptr, i32, ptr, ptr, i64, i64, i32, ptr, i64, ptr, i32, i16, ptr, ptr, i32, ptr, i32, i8, ptr, i32, i16, i16, ptr, i16, i64, i16, i64, ptr, i64, i32, i16, i64, i16, ptr, i16, i64, ptr, i64, i16, i32, i16, ptr, ptr, ptr, i16, i32, i16, i16, i32, ptr, i16, i32 }

@slurm_conf = external global %struct.slurm_conf_t, align 8
@.str.143 = private unnamed_addr constant [4 x i8] c" : \00", align 1
@.str.144 = private unnamed_addr constant [6 x i8] c" : %s\00", align 1

; Function Attrs: nounwind uwtable
define dso_local void @set_node_reason(ptr noundef %0, ptr noundef %1, i64 noundef %2) #0 {
  %4 = alloca ptr, align 8
  %5 = alloca ptr, align 8
  %6 = alloca i64, align 8
  %7 = alloca ptr, align 8
  store ptr %0, ptr %4, align 8
  store ptr %1, ptr %5, align 8
  store i64 %2, ptr %6, align 8
  %8 = load ptr, ptr %5, align 8
  %9 = icmp ne ptr %8, null
  br i1 %9, label %10, label %47

10:                                               ; preds = %3
  %11 = load ptr, ptr %5, align 8
  %12 = getelementptr inbounds i8, ptr %11, i64 0
  %13 = load i8, ptr %12, align 1
  %14 = sext i8 %13 to i32
  %15 = icmp ne i32 %14, 0
  br i1 %15, label %16, label %47

16:                                               ; preds = %10
  %17 = load ptr, ptr %4, align 8
  %18 = getelementptr inbounds nuw %struct.node_record, ptr %17, i32 0, i32 55
  %19 = load ptr, ptr %18, align 8
  %20 = icmp ne ptr %19, null
  br i1 %20, label %21, label %35

21:                                               ; preds = %16
  call void @llvm.lifetime.start.p0(i64 8, ptr %7) #10
  %22 = call ptr @xstrdup(ptr noundef @.str.143)
  store ptr %22, ptr %7, align 8
  %23 = load ptr, ptr %5, align 8
  call void @_xstrcat(ptr noundef %7, ptr noundef %23)
  %24 = load ptr, ptr %4, align 8
  %25 = getelementptr inbounds nuw %struct.node_record, ptr %24, i32 0, i32 55
  %26 = load ptr, ptr %25, align 8
  %27 = load ptr, ptr %7, align 8
  %28 = call ptr @xstrstr(ptr noundef %26, ptr noundef %27)
  %29 = icmp ne ptr %28, null
  br i1 %29, label %34, label %30

30:                                               ; preds = %21
  %31 = load ptr, ptr %4, align 8
  %32 = getelementptr inbounds nuw %struct.node_record, ptr %31, i32 0, i32 55
  %33 = load ptr, ptr %5, align 8
  call void (ptr, ptr, ...) @_xstrfmtcat(ptr noundef %32, ptr noundef @.str.144, ptr noundef %33)
  br label %34

34:                                               ; preds = %30, %21
  call void @slurm_xfree(ptr noundef %7)
  call void @llvm.lifetime.end.p0(i64 8, ptr %7) #10
  br label %40

35:                                               ; preds = %16
  %36 = load ptr, ptr %5, align 8
  %37 = call ptr @xstrdup(ptr noundef %36)
  %38 = load ptr, ptr %4, align 8
  %39 = getelementptr inbounds nuw %struct.node_record, ptr %38, i32 0, i32 55
  store ptr %37, ptr %39, align 8
  br label %40

40:                                               ; preds = %35, %34
  %41 = load i64, ptr %6, align 8
  %42 = load ptr, ptr %4, align 8
  %43 = getelementptr inbounds nuw %struct.node_record, ptr %42, i32 0, i32 56
  store i64 %41, ptr %43, align 8
  %44 = load i32, ptr getelementptr inbounds nuw (%struct.slurm_conf_t, ptr @slurm_conf, i32 0, i32 173), align 8
  %45 = load ptr, ptr %4, align 8
  %46 = getelementptr inbounds nuw %struct.node_record, ptr %45, i32 0, i32 57
  store i32 %44, ptr %46, align 8
  br label %54

47:                                               ; preds = %10, %3
  %48 = load ptr, ptr %4, align 8
  %49 = getelementptr inbounds nuw %struct.node_record, ptr %48, i32 0, i32 55
  call void @slurm_xfree(ptr noundef %49)
  %50 = load ptr, ptr %4, align 8
  %51 = getelementptr inbounds nuw %struct.node_record, ptr %50, i32 0, i32 56
  store i64 0, ptr %51, align 8
  %52 = load ptr, ptr %4, align 8
  %53 = getelementptr inbounds nuw %struct.node_record, ptr %52, i32 0, i32 57
  store i32 -2, ptr %53, align 8
  br label %54

54:                                               ; preds = %47, %40
  ret void
}