; Function Attrs: nounwind uwtable
define dso_local void @set_node_reason(ptr noundef %0, ptr noundef %1, i64 noundef %2) local_unnamed_addr #0 {
  %4 = alloca ptr, align 8
  %.not = icmp eq ptr %1, null
  br i1 %.not, label %22, label %5

5:                                                ; preds = %3
  %6 = load i8, ptr %1, align 1
  %.not14 = icmp eq i8 %6, 0
  br i1 %.not14, label %22, label %7

7:                                                ; preds = %5
  %8 = getelementptr inbounds nuw i8, ptr %0, i64 384
  %9 = load ptr, ptr %8, align 8
  %.not15 = icmp eq ptr %9, null
  br i1 %.not15, label %17, label %10

10:                                               ; preds = %7
  call void @llvm.lifetime.start.p0(i64 8, ptr nonnull %4) #15
  %11 = tail call ptr @xstrdup(ptr noundef nonnull @.str.143) #15
  store ptr %11, ptr %4, align 8
  call void @_xstrcat(ptr noundef nonnull %4, ptr noundef nonnull %1) #15
  %12 = load ptr, ptr %8, align 8
  %13 = load ptr, ptr %4, align 8
  %14 = call ptr @xstrstr(ptr noundef %12, ptr noundef %13) #15
  %.not16 = icmp eq ptr %14, null
  br i1 %.not16, label %15, label %16

15:                                               ; preds = %10
  call void (ptr, ptr, ...) @_xstrfmtcat(ptr noundef nonnull %8, ptr noundef nonnull @.str.144, ptr noundef nonnull %1) #15
  br label %16

16:                                               ; preds = %15, %10
  call void @slurm_xfree(ptr noundef nonnull %4) #15
  call void @llvm.lifetime.end.p0(i64 8, ptr nonnull %4) #15
  br label %19

17:                                               ; preds = %7
  %18 = tail call ptr @xstrdup(ptr noundef nonnull %1) #15
  store ptr %18, ptr %8, align 8
  br label %19

19:                                               ; preds = %17, %16
  %20 = getelementptr inbounds nuw i8, ptr %0, i64 392
  store i64 %2, ptr %20, align 8
  %21 = load i32, ptr getelementptr inbounds nuw (i8, ptr @slurm_conf, i64 1152), align 8
  br label %25

22:                                               ; preds = %5, %3
  %23 = getelementptr inbounds nuw i8, ptr %0, i64 384
  tail call void @slurm_xfree(ptr noundef nonnull %23) #15
  %24 = getelementptr inbounds nuw i8, ptr %0, i64 392
  store i64 0, ptr %24, align 8
  br label %25

25:                                               ; preds = %22, %19
  %.sink = phi i32 [ -2, %22 ], [ %21, %19 ]
  %26 = getelementptr inbounds nuw i8, ptr %0, i64 400
  store i32 %.sink, ptr %26, align 8
  ret void
}